; Function Attrs: nounwind uwtable
define internal range(i32 0, 3) i32 @lj_cf_debug_getupvalue(ptr noundef %0) #0 {
  %2 = tail call i32 @lj_lib_checkint(ptr noundef %0, i32 noundef 2) #10
  %3 = tail call ptr @lj_lib_checkfunc(ptr noundef %0, i32 noundef 1) #10
  %4 = tail call ptr @lua_getupvalue(ptr noundef %0, i32 noundef 1, i32 noundef %2) #10
  %.not1617.i = icmp eq ptr %4, null
  br i1 %.not1617.i, label %debug_getupvalue.exit, label %5

5:                                                ; preds = %1
  tail call void @lua_pushstring(ptr noundef %0, ptr noundef nonnull %4) #10
  %6 = getelementptr inbounds nuw i8, ptr %0, i64 40
  %7 = load ptr, ptr %6, align 8, !tbaa !4
  %8 = getelementptr inbounds i8, ptr %7, i64 -16
  %9 = load i64, ptr %8, align 8, !tbaa !15
  store i64 %9, ptr %7, align 8, !tbaa !15
  %10 = load ptr, ptr %6, align 8, !tbaa !4
  %11 = getelementptr inbounds nuw i8, ptr %10, i64 8
  store ptr %11, ptr %6, align 8, !tbaa !4
  br label %debug_getupvalue.exit

debug_getupvalue.exit:                            ; preds = %1, %5
  %.0.i = phi i32 [ 2, %5 ], [ 0, %1 ]
  ret i32 %.0.i
}